; ModuleID = 'source-C-CXX/21/803.c'
source_filename = "source-C-CXX/21/803.c"
target datalayout = "e-m:e-p270:32:32-p271:32:32-p272:64:64-i64:64-f80:128-n8:16:32:64-S128"
target triple = "x86_64-pc-linux-gnu"

%struct._IO_FILE = type { i32, i8*, i8*, i8*, i8*, i8*, i8*, i8*, i8*, i8*, i8*, i8*, %struct._IO_marker*, %struct._IO_FILE*, i32, i32, i64, i16, i8, [1 x i8], i8*, i64, %struct._IO_codecvt*, %struct._IO_wide_data*, %struct._IO_FILE*, i8*, i64, i32, [20 x i8] }
%struct._IO_marker = type opaque
%struct._IO_codecvt = type opaque
%struct._IO_wide_data = type opaque

@.str = private unnamed_addr constant [3 x i8] c"%d\00", align 1
@.str.1 = private unnamed_addr constant [3 x i8] c"No\00", align 1
@stdin = external local_unnamed_addr global %struct._IO_FILE*, align 8

; Function Attrs: nofree nounwind sspstrong uwtable
define dso_local i32 @main() local_unnamed_addr #0 {
  %1 = alloca [300 x i32], align 16
  %2 = bitcast [300 x i32]* %1 to i8*
  call void @llvm.lifetime.start.p0i8(i64 1200, i8* nonnull %2) #5
  br label %3

3:                                                ; preds = %0, %3
  %4 = phi i64 [ 0, %0 ], [ %7, %3 ]
  %5 = getelementptr inbounds [300 x i32], [300 x i32]* %1, i64 0, i64 %4
  %6 = call i32 (i8*, ...) @__isoc99_scanf(i8* getelementptr inbounds ([3 x i8], [3 x i8]* @.str, i64 0, i64 0), i32* nonnull %5)
  %7 = add nuw i64 %4, 1
  %8 = load %struct._IO_FILE*, %struct._IO_FILE** @stdin, align 8, !tbaa !5
  %9 = call i32 @getc(%struct._IO_FILE* %8) #5
  %10 = and i32 %9, 255
  %11 = icmp eq i32 %10, 10
  br i1 %11, label %12, label %3, !llvm.loop !9

12:                                               ; preds = %3
  %13 = trunc i64 %4 to i32
  %14 = icmp eq i32 %13, 0
  br i1 %14, label %57, label %15

15:                                               ; preds = %12
  %16 = add i32 %13, -1
  %17 = call i32 @llvm.smax.i32(i32 %16, i32 0)
  %18 = add nuw i32 %17, 1
  %19 = zext i32 %18 to i64
  %20 = getelementptr inbounds [300 x i32], [300 x i32]* %1, i64 0, i64 0
  %21 = load i32, i32* %20, align 16, !tbaa !11
  %22 = icmp ult i32 %17, 7
  br i1 %22, label %53, label %23

23:                                               ; preds = %15
  %24 = and i64 %19, 4294967288
  %25 = insertelement <4 x i32> poison, i32 %21, i32 3
  br label %26

26:                                               ; preds = %26, %23
  %27 = phi i64 [ 0, %23 ], [ %46, %26 ]
  %28 = phi <4 x i32> [ %25, %23 ], [ %37, %26 ]
  %29 = phi <4 x i32> [ zeroinitializer, %23 ], [ %44, %26 ]
  %30 = phi <4 x i32> [ zeroinitializer, %23 ], [ %45, %26 ]
  %31 = or i64 %27, 1
  %32 = getelementptr inbounds [300 x i32], [300 x i32]* %1, i64 0, i64 %31
  %33 = bitcast i32* %32 to <4 x i32>*
  %34 = load <4 x i32>, <4 x i32>* %33, align 4, !tbaa !11
  %35 = getelementptr inbounds i32, i32* %32, i64 4
  %36 = bitcast i32* %35 to <4 x i32>*
  %37 = load <4 x i32>, <4 x i32>* %36, align 4, !tbaa !11
  %38 = shufflevector <4 x i32> %28, <4 x i32> %34, <4 x i32> <i32 3, i32 4, i32 5, i32 6>
  %39 = shufflevector <4 x i32> %34, <4 x i32> %37, <4 x i32> <i32 3, i32 4, i32 5, i32 6>
  %40 = icmp eq <4 x i32> %38, %34
  %41 = icmp eq <4 x i32> %39, %37
  %42 = zext <4 x i1> %40 to <4 x i32>
  %43 = zext <4 x i1> %41 to <4 x i32>
  %44 = add <4 x i32> %29, %42
  %45 = add <4 x i32> %30, %43
  %46 = add nuw i64 %27, 8
  %47 = icmp eq i64 %46, %24
  br i1 %47, label %48, label %26, !llvm.loop !13

48:                                               ; preds = %26
  %49 = add <4 x i32> %45, %44
  %50 = call i32 @llvm.vector.reduce.add.v4i32(<4 x i32> %49)
  %51 = icmp eq i64 %24, %19
  %52 = extractelement <4 x i32> %37, i32 3
  br i1 %51, label %70, label %53

53:                                               ; preds = %15, %48
  %54 = phi i32 [ %52, %48 ], [ %21, %15 ]
  %55 = phi i64 [ %24, %48 ], [ 0, %15 ]
  %56 = phi i32 [ %50, %48 ], [ 0, %15 ]
  br label %59

57:                                               ; preds = %12
  %58 = call i32 (i8*, ...) @printf(i8* nonnull dereferenceable(1) getelementptr inbounds ([3 x i8], [3 x i8]* @.str.1, i64 0, i64 0))
  br label %135

59:                                               ; preds = %53, %59
  %60 = phi i32 [ %65, %59 ], [ %54, %53 ]
  %61 = phi i64 [ %63, %59 ], [ %55, %53 ]
  %62 = phi i32 [ %68, %59 ], [ %56, %53 ]
  %63 = add nuw nsw i64 %61, 1
  %64 = getelementptr inbounds [300 x i32], [300 x i32]* %1, i64 0, i64 %63
  %65 = load i32, i32* %64, align 4, !tbaa !11
  %66 = icmp eq i32 %60, %65
  %67 = zext i1 %66 to i32
  %68 = add nuw nsw i32 %62, %67
  %69 = icmp eq i64 %63, %19
  br i1 %69, label %70, label %59, !llvm.loop !15

70:                                               ; preds = %59, %48
  %71 = phi i32 [ %50, %48 ], [ %68, %59 ]
  %72 = icmp eq i32 %71, %13
  br i1 %72, label %76, label %73

73:                                               ; preds = %70
  %74 = call i32 @llvm.umax.i32(i32 %13, i32 1)
  %75 = getelementptr inbounds [300 x i32], [300 x i32]* %1, i64 0, i64 0
  br label %78

76:                                               ; preds = %70
  %77 = call i32 (i8*, ...) @printf(i8* nonnull dereferenceable(1) getelementptr inbounds ([3 x i8], [3 x i8]* @.str.1, i64 0, i64 0))
  br label %135

78:                                               ; preds = %73, %119
  %79 = phi i32 [ 0, %73 ], [ %122, %119 ]
  %80 = phi i32 [ 1, %73 ], [ %120, %119 ]
  %81 = sub i32 %13, %79
  %82 = zext i32 %81 to i64
  %83 = icmp sgt i32 %80, %13
  br i1 %83, label %119, label %84

84:                                               ; preds = %78
  %85 = load i32, i32* %75, align 16, !tbaa !11
  %86 = and i64 %82, 1
  %87 = icmp eq i32 %81, 1
  br i1 %87, label %108, label %88

88:                                               ; preds = %84
  %89 = and i64 %82, 4294967294
  br label %92

90:                                               ; preds = %119
  %91 = and i64 %4, 4294967295
  br label %123

92:                                               ; preds = %138, %88
  %93 = phi i32 [ %85, %88 ], [ %139, %138 ]
  %94 = phi i64 [ 0, %88 ], [ %104, %138 ]
  %95 = phi i64 [ %89, %88 ], [ %140, %138 ]
  %96 = or i64 %94, 1
  %97 = getelementptr inbounds [300 x i32], [300 x i32]* %1, i64 0, i64 %96
  %98 = load i32, i32* %97, align 4, !tbaa !11
  %99 = icmp sgt i32 %93, %98
  br i1 %99, label %102, label %100

100:                                              ; preds = %92
  %101 = getelementptr inbounds [300 x i32], [300 x i32]* %1, i64 0, i64 %94
  store i32 %93, i32* %97, align 4, !tbaa !11
  store i32 %98, i32* %101, align 8, !tbaa !11
  br label %102

102:                                              ; preds = %92, %100
  %103 = phi i32 [ %98, %92 ], [ %93, %100 ]
  %104 = add nuw nsw i64 %94, 2
  %105 = getelementptr inbounds [300 x i32], [300 x i32]* %1, i64 0, i64 %104
  %106 = load i32, i32* %105, align 8, !tbaa !11
  %107 = icmp sgt i32 %103, %106
  br i1 %107, label %138, label %136

108:                                              ; preds = %138, %84
  %109 = phi i32 [ %85, %84 ], [ %139, %138 ]
  %110 = phi i64 [ 0, %84 ], [ %104, %138 ]
  %111 = icmp eq i64 %86, 0
  br i1 %111, label %119, label %112

112:                                              ; preds = %108
  %113 = add nuw nsw i64 %110, 1
  %114 = getelementptr inbounds [300 x i32], [300 x i32]* %1, i64 0, i64 %113
  %115 = load i32, i32* %114, align 4, !tbaa !11
  %116 = icmp sgt i32 %109, %115
  br i1 %116, label %119, label %117

117:                                              ; preds = %112
  %118 = getelementptr inbounds [300 x i32], [300 x i32]* %1, i64 0, i64 %110
  store i32 %109, i32* %114, align 4, !tbaa !11
  store i32 %115, i32* %118, align 4, !tbaa !11
  br label %119

119:                                              ; preds = %108, %112, %117, %78
  %120 = add nuw i32 %80, 1
  %121 = icmp eq i32 %80, %74
  %122 = add i32 %79, 1
  br i1 %121, label %90, label %78, !llvm.loop !17

123:                                              ; preds = %90, %126
  %124 = phi i64 [ 0, %90 ], [ %129, %126 ]
  %125 = icmp ugt i64 %124, %91
  br i1 %125, label %135, label %126

126:                                              ; preds = %123
  %127 = getelementptr inbounds [300 x i32], [300 x i32]* %1, i64 0, i64 %124
  %128 = load i32, i32* %127, align 4, !tbaa !11
  %129 = add nuw i64 %124, 1
  %130 = getelementptr inbounds [300 x i32], [300 x i32]* %1, i64 0, i64 %129
  %131 = load i32, i32* %130, align 4, !tbaa !11
  %132 = icmp eq i32 %128, %131
  br i1 %132, label %123, label %133, !llvm.loop !18

133:                                              ; preds = %126
  %134 = call i32 (i8*, ...) @printf(i8* nonnull dereferenceable(1) getelementptr inbounds ([3 x i8], [3 x i8]* @.str, i64 0, i64 0), i32 %131)
  br label %135

135:                                              ; preds = %123, %76, %133, %57
  call void @llvm.lifetime.end.p0i8(i64 1200, i8* nonnull %2) #5
  ret i32 0

136:                                              ; preds = %102
  %137 = getelementptr inbounds [300 x i32], [300 x i32]* %1, i64 0, i64 %96
  store i32 %103, i32* %105, align 8, !tbaa !11
  store i32 %106, i32* %137, align 4, !tbaa !11
  br label %138

138:                                              ; preds = %136, %102
  %139 = phi i32 [ %106, %102 ], [ %103, %136 ]
  %140 = add i64 %95, -2
  %141 = icmp eq i64 %140, 0
  br i1 %141, label %108, label %92, !llvm.loop !19
}

; Function Attrs: argmemonly mustprogress nofree nosync nounwind willreturn
declare void @llvm.lifetime.start.p0i8(i64 immarg, i8* nocapture) #1

; Function Attrs: nofree nounwind
declare noundef i32 @__isoc99_scanf(i8* nocapture noundef readonly, ...) local_unnamed_addr #2

; Function Attrs: nofree nounwind
declare noundef i32 @printf(i8* nocapture noundef readonly, ...) local_unnamed_addr #2

; Function Attrs: argmemonly mustprogress nofree nosync nounwind willreturn
declare void @llvm.lifetime.end.p0i8(i64 immarg, i8* nocapture) #1

; Function Attrs: nofree nounwind
declare noundef i32 @getc(%struct._IO_FILE* nocapture noundef) local_unnamed_addr #2

; Function Attrs: nofree nosync nounwind readnone speculatable willreturn
declare i32 @llvm.smax.i32(i32, i32) #3

; Function Attrs: nofree nosync nounwind readnone speculatable willreturn
declare i32 @llvm.umax.i32(i32, i32) #3

; Function Attrs: nofree nosync nounwind readnone willreturn
declare i32 @llvm.vector.reduce.add.v4i32(<4 x i32>) #4


!llvm.module.flags = !{!0, !1, !2, !3}
!llvm.ident = !{!4}

!0 = !{i32 1, !"wchar_size", i32 4}
!1 = !{i32 7, !"PIC Level", i32 2}
!2 = !{i32 7, !"PIE Level", i32 2}
!3 = !{i32 7, !"uwtable", i32 1}
!4 = !{!"clang version 13.0.0"}
!5 = !{!6, !6, i64 0}
!6 = !{!"any pointer", !7, i64 0}
!7 = !{!"omnipotent char", !8, i64 0}
!8 = !{!"Simple C/C++ TBAA"}
!9 = distinct !{!9, !10}
!10 = !{!"llvm.loop.mustprogress"}
!11 = !{!12, !12, i64 0}
!12 = !{!"int", !7, i64 0}
!13 = distinct !{!13, !10, !14}
!14 = !{!"llvm.loop.isvectorized", i32 1}
!15 = distinct !{!15, !10, !16, !14}
!16 = !{!"llvm.loop.unroll.runtime.disable"}
!17 = distinct !{!17, !10}
!18 = distinct !{!18, !10}
!19 = distinct !{!19, !10}
